target datalayout = "e-m:e-p270:32:32-p271:32:32-p272:64:64-i64:64-i128:128-f80:128-n8:16:32:64-S128"
target triple = "x86_64-pc-linux-gnu"

%class.Expression = type { ptr, i32, i32, ptr }

; Function Attrs: mustprogress nounwind uwtable
define dso_local void @_ZN10ExpressionC2ERKS_(ptr noundef nonnull align 8 dereferenceable(24) %0, ptr noundef nonnull align 8 dereferenceable(24) %1) unnamed_addr #4 align 2 {
  %3 = alloca ptr, align 8
  %4 = alloca ptr, align 8
  store ptr %0, ptr %3, align 8, !tbaa !17
  store ptr %1, ptr %4, align 8, !tbaa !17
  %5 = load ptr, ptr %3, align 8
  store ptr getelementptr inbounds inrange(-16, 176) ({ [24 x ptr] }, ptr @_ZTV10Expression, i32 0, i32 0, i32 2), ptr %5, align 8, !tbaa !19
  %6 = getelementptr inbounds nuw %class.Expression, ptr %5, i32 0, i32 1
  %7 = load ptr, ptr %4, align 8, !tbaa !17
  %8 = getelementptr inbounds nuw %class.Expression, ptr %7, i32 0, i32 1
  %9 = load i32, ptr %8, align 8, !tbaa !96
  store i32 %9, ptr %6, align 8, !tbaa !96
  %10 = getelementptr inbounds nuw %class.Expression, ptr %5, i32 0, i32 3
  store ptr null, ptr %10, align 8, !tbaa !112
  ret void
}